target datalayout = "e-m:e-p270:32:32-p271:32:32-p272:64:64-i64:64-i128:128-f80:128-n8:16:32:64-S128"
target triple = "x86_64-pc-linux-gnu"

%class.QString = type { %struct.QArrayDataPointer }
%struct.QArrayDataPointer = type { ptr, ptr, i64 }
%class.QModelIndex = type { i32, i32, i64, ptr }
%class.UatDialog = type { %class.GeometryStateDialog, ptr, ptr, ptr, ptr, ptr, ptr }
%class.GeometryStateDialog = type { %class.QDialog, %class.QString, ptr }
%class.QDialog = type { %class.QWidget }
%class.QWidget = type { %class.QObject, %class.QPaintDevice.base, ptr }
%class.QObject = type { ptr, %class.QScopedPointer }
%class.QScopedPointer = type { ptr }
%class.QPaintDevice.base = type <{ ptr, i16 }>

; Function Attrs: inlinehint mustprogress nounwind null_pointer_is_valid sspstrong uwtable
define linkonce_odr void @_ZN11QModelIndexC2Ev(ptr noundef align 8 dereferenceable_or_null(24) %0) unnamed_addr #1 comdat align 2 {
  %2 = alloca ptr, align 8
  store ptr %0, ptr %2, align 8
  %3 = load ptr, ptr %2, align 8
  %4 = getelementptr inbounds nuw %class.QModelIndex, ptr %3, i32 0, i32 0
  store i32 -1, ptr %4, align 8
  %5 = getelementptr inbounds nuw %class.QModelIndex, ptr %3, i32 0, i32 1
  store i32 -1, ptr %5, align 4
  %6 = getelementptr inbounds nuw %class.QModelIndex, ptr %3, i32 0, i32 2
  store i64 0, ptr %6, align 8
  %7 = getelementptr inbounds nuw %class.QModelIndex, ptr %3, i32 0, i32 3
  store ptr null, ptr %7, align 8
  ret void
}

; Function Attrs: mustprogress null_pointer_is_valid sspstrong uwtable
define void @_ZN9UatDialog16modelDataChangedERK11QModelIndex(ptr noundef align 8 dereferenceable_or_null(120) %0, ptr noundef align 8 dereferenceable(24) %1) #0 align 2 {
  %3 = alloca ptr, align 8
  %4 = alloca ptr, align 8
  %5 = alloca %class.QModelIndex, align 8
  store ptr %0, ptr %3, align 8
  store ptr %1, ptr %4, align 8
  %6 = load ptr, ptr %3, align 8
  %7 = load ptr, ptr %4, align 8
  call void @llvm.lifetime.start.p0(i64 24, ptr %5) #23
  call void @_ZN11QModelIndexC2Ev(ptr noundef align 8 dereferenceable_or_null(24) %5) #23
  call void @_ZN9UatDialog17checkForErrorHintERK11QModelIndexS2_(ptr noundef align 8 dereferenceable_or_null(120) %6, ptr noundef align 8 dereferenceable(24) %7, ptr noundef align 8 dereferenceable(24) %5)
  call void @llvm.lifetime.end.p0(i64 24, ptr %5) #23
  %8 = getelementptr inbounds nuw %class.UatDialog, ptr %6, i32 0, i32 4
  %9 = load ptr, ptr %8, align 8
  %10 = getelementptr inbounds nuw %class.UatDialog, ptr %6, i32 0, i32 2
  %11 = load ptr, ptr %10, align 8
  %12 = call noundef zeroext i1 @_ZNK8UatModel9hasErrorsEv(ptr noundef align 8 dereferenceable_or_null(80) %11)
  %13 = xor i1 %12, true
  call void @_ZN7QWidget10setEnabledEb(ptr noundef align 8 dereferenceable_or_null(40) %9, i1 noundef zeroext %13)
  call void @_ZN9UatDialog13resizeColumnsEv(ptr noundef align 8 dereferenceable_or_null(120) %6)
  ret void
}