; Function Attrs: mustprogress null_pointer_is_valid sspstrong uwtable
define void @_ZN9UatDialog16modelDataChangedERK11QModelIndex(ptr noundef readonly align 8 captures(none) dereferenceable_or_null(120) %0, ptr noundef align 8 dereferenceable(24) %1) local_unnamed_addr #0 align 2 {
  %3 = alloca %class.QModelIndex, align 8
  call void @llvm.lifetime.start.p0(i64 24, ptr nonnull %3) #21
  store i32 -1, ptr %3, align 8
  %4 = getelementptr inbounds nuw i8, ptr %3, i64 4
  store i32 -1, ptr %4, align 4
  %5 = getelementptr inbounds nuw i8, ptr %3, i64 8
  call void @llvm.memset.p0.i64(ptr noundef nonnull align 8 dereferenceable(16) %5, i8 0, i64 16, i1 false)
  call void @_ZN9UatDialog17checkForErrorHintERK11QModelIndexS2_(ptr noundef align 8 dereferenceable_or_null(120) %0, ptr noundef align 8 dereferenceable(24) %1, ptr noundef nonnull align 8 dereferenceable(24) %3)
  call void @llvm.lifetime.end.p0(i64 24, ptr nonnull %3) #21
  %6 = getelementptr inbounds nuw i8, ptr %0, i64 96
  %7 = load ptr, ptr %6, align 8
  %8 = getelementptr inbounds nuw i8, ptr %0, i64 80
  %9 = load ptr, ptr %8, align 8
  %10 = call noundef zeroext i1 @_ZNK8UatModel9hasErrorsEv(ptr noundef align 8 dereferenceable_or_null(80) %9)
  %11 = xor i1 %10, true
  call void @_ZN7QWidget10setEnabledEb(ptr noundef align 8 dereferenceable_or_null(40) %7, i1 noundef zeroext %11)
  call void @_ZN9UatDialog13resizeColumnsEv(ptr noundef align 8 dereferenceable_or_null(120) %0)
  ret void
}